target datalayout = "e-m:e-p270:32:32-p271:32:32-p272:64:64-i64:64-i128:128-f80:128-n8:16:32:64-S128"
target triple = "x86_64-pc-linux-gnu"

%"class.llvm::SmallVectorBase" = type { ptr, i32, i32 }
%"struct.llvm::Align" = type { i8 }
%"class.llvm::MachineFunctionProperties" = type { %"class.std::bitset" }
%"class.std::bitset" = type { %"struct.std::_Base_bitset" }
%"struct.std::_Base_bitset" = type { i64 }
%"class.llvm::ilist_node_impl.17" = type { %"class.llvm::ilist_node_base" }
%"class.llvm::ilist_node_base" = type { %"class.llvm::ilist_detail::node_base_prevnext" }
%"class.llvm::ilist_detail::node_base_prevnext" = type { ptr, ptr }
%"class.llvm::MachineFunction" = type <{ ptr, ptr, ptr, ptr, ptr, ptr, ptr, ptr, ptr, ptr, ptr, ptr, %"class.std::vector.55", i32, [4 x i8], %"class.llvm::BumpPtrAllocatorImpl", %"class.llvm::Recycler", %"class.llvm::ArrayRecycler", %"class.llvm::Recycler.76", %"class.llvm::iplist.77", i32, %"struct.llvm::Align", i8, i8, i8, %"class.llvm::MachineFunctionProperties", %"class.std::unique_ptr.84", %"class.std::vector.92", %"class.std::vector.97", %"class.std::vector.97", %"class.std::vector.102", %"class.llvm::DenseMap", %"class.llvm::DenseMap.107", %"class.llvm::DenseMap.110", %"class.std::vector.113", i8, i8, i8, i8, i8, i8, [2 x i8], i32, i32, %"class.std::vector.118", %"class.std::vector.123", %"class.std::vector.123", i32, [4 x i8], ptr, ptr, %"class.llvm::DenseMap.128", %"class.llvm::SmallVector.131", i32, [4 x i8], %"class.llvm::SmallVector.136", %"class.llvm::DenseMap.141", i8, [7 x i8] }>
%"class.std::vector.55" = type { %"struct.std::_Vector_base.56" }
%"struct.std::_Vector_base.56" = type { %"struct.std::_Vector_base<llvm::MachineBasicBlock *, std::allocator<llvm::MachineBasicBlock *>>::_Vector_impl" }
%"struct.std::_Vector_base<llvm::MachineBasicBlock *, std::allocator<llvm::MachineBasicBlock *>>::_Vector_impl" = type { %"struct.std::_Vector_base<llvm::MachineBasicBlock *, std::allocator<llvm::MachineBasicBlock *>>::_Vector_impl_data" }
%"struct.std::_Vector_base<llvm::MachineBasicBlock *, std::allocator<llvm::MachineBasicBlock *>>::_Vector_impl_data" = type { ptr, ptr, ptr }
%"class.llvm::BumpPtrAllocatorImpl" = type { ptr, ptr, %"class.llvm::SmallVector.61", %"class.llvm::SmallVector.66", i64, i64 }
%"class.llvm::SmallVector.61" = type { %"class.llvm::SmallVectorImpl.62", %"struct.llvm::SmallVectorStorage.65" }
%"class.llvm::SmallVectorImpl.62" = type { %"class.llvm::SmallVectorTemplateBase.63" }
%"class.llvm::SmallVectorTemplateBase.63" = type { %"class.llvm::SmallVectorTemplateCommon.64" }
%"class.llvm::SmallVectorTemplateCommon.64" = type { %"class.llvm::SmallVectorBase" }
%"struct.llvm::SmallVectorStorage.65" = type { [32 x i8] }
%"class.llvm::SmallVector.66" = type { %"class.llvm::SmallVectorImpl.67" }
%"class.llvm::SmallVectorImpl.67" = type { %"class.llvm::SmallVectorTemplateBase.68" }
%"class.llvm::SmallVectorTemplateBase.68" = type { %"class.llvm::SmallVectorTemplateCommon.69" }
%"class.llvm::SmallVectorTemplateCommon.69" = type { %"class.llvm::SmallVectorBase" }
%"class.llvm::Recycler" = type { ptr }
%"class.llvm::ArrayRecycler" = type { %"class.llvm::SmallVector.71" }
%"class.llvm::SmallVector.71" = type { %"class.llvm::SmallVectorImpl.72", %"struct.llvm::SmallVectorStorage.75" }
%"class.llvm::SmallVectorImpl.72" = type { %"class.llvm::SmallVectorTemplateBase.73" }
%"class.llvm::SmallVectorTemplateBase.73" = type { %"class.llvm::SmallVectorTemplateCommon.74" }
%"class.llvm::SmallVectorTemplateCommon.74" = type { %"class.llvm::SmallVectorBase" }
%"struct.llvm::SmallVectorStorage.75" = type { [64 x i8] }
%"class.llvm::Recycler.76" = type { ptr }
%"class.llvm::iplist.77" = type { %"class.llvm::iplist_impl.78" }
%"class.llvm::iplist_impl.78" = type { %"class.llvm::simple_ilist.81" }
%"class.llvm::simple_ilist.81" = type { %"class.llvm::ilist_sentinel.83" }
%"class.llvm::ilist_sentinel.83" = type { %"class.llvm::ilist_node_impl.17" }
%"class.std::unique_ptr.84" = type { %"struct.std::__uniq_ptr_data.85" }
%"struct.std::__uniq_ptr_data.85" = type { %"class.std::__uniq_ptr_impl.86" }
%"class.std::__uniq_ptr_impl.86" = type { %"class.std::tuple.87" }
%"class.std::tuple.87" = type { %"struct.std::_Tuple_impl.88" }
%"struct.std::_Tuple_impl.88" = type { %"struct.std::_Head_base.91" }
%"struct.std::_Head_base.91" = type { ptr }
%"class.std::vector.92" = type { %"struct.std::_Vector_base.93" }
%"struct.std::_Vector_base.93" = type { %"struct.std::_Vector_base<llvm::MCCFIInstruction, std::allocator<llvm::MCCFIInstruction>>::_Vector_impl" }
%"struct.std::_Vector_base<llvm::MCCFIInstruction, std::allocator<llvm::MCCFIInstruction>>::_Vector_impl" = type { %"struct.std::_Vector_base<llvm::MCCFIInstruction, std::allocator<llvm::MCCFIInstruction>>::_Vector_impl_data" }
%"struct.std::_Vector_base<llvm::MCCFIInstruction, std::allocator<llvm::MCCFIInstruction>>::_Vector_impl_data" = type { ptr, ptr, ptr }
%"class.std::vector.97" = type { %"struct.std::_Vector_base.98" }
%"struct.std::_Vector_base.98" = type { %"struct.std::_Vector_base<llvm::MCSymbol *, std::allocator<llvm::MCSymbol *>>::_Vector_impl" }
%"struct.std::_Vector_base<llvm::MCSymbol *, std::allocator<llvm::MCSymbol *>>::_Vector_impl" = type { %"struct.std::_Vector_base<llvm::MCSymbol *, std::allocator<llvm::MCSymbol *>>::_Vector_impl_data" }
%"struct.std::_Vector_base<llvm::MCSymbol *, std::allocator<llvm::MCSymbol *>>::_Vector_impl_data" = type { ptr, ptr, ptr }
%"class.std::vector.102" = type { %"struct.std::_Vector_base.103" }
%"struct.std::_Vector_base.103" = type { %"struct.std::_Vector_base<llvm::LandingPadInfo, std::allocator<llvm::LandingPadInfo>>::_Vector_impl" }
%"struct.std::_Vector_base<llvm::LandingPadInfo, std::allocator<llvm::LandingPadInfo>>::_Vector_impl" = type { %"struct.std::_Vector_base<llvm::LandingPadInfo, std::allocator<llvm::LandingPadInfo>>::_Vector_impl_data" }
%"struct.std::_Vector_base<llvm::LandingPadInfo, std::allocator<llvm::LandingPadInfo>>::_Vector_impl_data" = type { ptr, ptr, ptr }
%"class.llvm::DenseMap" = type <{ ptr, i32, i32, i32, [4 x i8] }>
%"class.llvm::DenseMap.107" = type <{ ptr, i32, i32, i32, [4 x i8] }>
%"class.llvm::DenseMap.110" = type <{ ptr, i32, i32, i32, [4 x i8] }>
%"class.std::vector.113" = type { %"struct.std::_Vector_base.114" }
%"struct.std::_Vector_base.114" = type { %"struct.std::_Vector_base<std::pair<llvm::MCSymbol *, llvm::MDNode *>, std::allocator<std::pair<llvm::MCSymbol *, llvm::MDNode *>>>::_Vector_impl" }
%"struct.std::_Vector_base<std::pair<llvm::MCSymbol *, llvm::MDNode *>, std::allocator<std::pair<llvm::MCSymbol *, llvm::MDNode *>>>::_Vector_impl" = type { %"struct.std::_Vector_base<std::pair<llvm::MCSymbol *, llvm::MDNode *>, std::allocator<std::pair<llvm::MCSymbol *, llvm::MDNode *>>>::_Vector_impl_data" }
%"struct.std::_Vector_base<std::pair<llvm::MCSymbol *, llvm::MDNode *>, std::allocator<std::pair<llvm::MCSymbol *, llvm::MDNode *>>>::_Vector_impl_data" = type { ptr, ptr, ptr }
%"class.std::vector.118" = type { %"struct.std::_Vector_base.119" }
%"struct.std::_Vector_base.119" = type { %"struct.std::_Vector_base<const llvm::GlobalValue *, std::allocator<const llvm::GlobalValue *>>::_Vector_impl" }
%"struct.std::_Vector_base<const llvm::GlobalValue *, std::allocator<const llvm::GlobalValue *>>::_Vector_impl" = type { %"struct.std::_Vector_base<const llvm::GlobalValue *, std::allocator<const llvm::GlobalValue *>>::_Vector_impl_data" }
%"struct.std::_Vector_base<const llvm::GlobalValue *, std::allocator<const llvm::GlobalValue *>>::_Vector_impl_data" = type { ptr, ptr, ptr }
%"class.std::vector.123" = type { %"struct.std::_Vector_base.124" }
%"struct.std::_Vector_base.124" = type { %"struct.std::_Vector_base<unsigned int, std::allocator<unsigned int>>::_Vector_impl" }
%"struct.std::_Vector_base<unsigned int, std::allocator<unsigned int>>::_Vector_impl" = type { %"struct.std::_Vector_base<unsigned int, std::allocator<unsigned int>>::_Vector_impl_data" }
%"struct.std::_Vector_base<unsigned int, std::allocator<unsigned int>>::_Vector_impl_data" = type { ptr, ptr, ptr }
%"class.llvm::DenseMap.128" = type <{ ptr, i32, i32, i32, [4 x i8] }>
%"class.llvm::SmallVector.131" = type { %"class.llvm::SmallVectorImpl.132", %"struct.llvm::SmallVectorStorage.135" }
%"class.llvm::SmallVectorImpl.132" = type { %"class.llvm::SmallVectorTemplateBase.133" }
%"class.llvm::SmallVectorTemplateBase.133" = type { %"class.llvm::SmallVectorTemplateCommon.134" }
%"class.llvm::SmallVectorTemplateCommon.134" = type { %"class.llvm::SmallVectorBase" }
%"struct.llvm::SmallVectorStorage.135" = type { [128 x i8] }
%"class.llvm::SmallVector.136" = type { %"class.llvm::SmallVectorImpl.137", %"struct.llvm::SmallVectorStorage.140" }
%"class.llvm::SmallVectorImpl.137" = type { %"class.llvm::SmallVectorTemplateBase.138" }
%"class.llvm::SmallVectorTemplateBase.138" = type { %"class.llvm::SmallVectorTemplateCommon.139" }
%"class.llvm::SmallVectorTemplateCommon.139" = type { %"class.llvm::SmallVectorBase" }
%"struct.llvm::SmallVectorStorage.140" = type { [160 x i8] }
%"class.llvm::DenseMap.141" = type <{ ptr, i32, i32, i32, [4 x i8] }>
%"struct.llvm::MaybeAlign" = type { %"class.std::optional.144" }
%"class.std::optional.144" = type { %"struct.std::_Optional_base.145" }
%"struct.std::_Optional_base.145" = type { %"struct.std::_Optional_payload.147" }
%"struct.std::_Optional_payload.147" = type { %"struct.std::_Optional_payload_base.148" }
%"struct.std::_Optional_payload_base.148" = type { %"union.std::_Optional_payload_base<llvm::Align>::_Storage", i8 }
%"union.std::_Optional_payload_base<llvm::Align>::_Storage" = type { %"struct.std::_Optional_payload_base<llvm::Align>::_Empty_byte" }
%"struct.std::_Optional_payload_base<llvm::Align>::_Empty_byte" = type { i8 }
%"class.std::__cxx11::basic_string" = type { %"struct.std::__cxx11::basic_string<char>::_Alloc_hider", i64, %union.anon.173 }
%"struct.std::__cxx11::basic_string<char>::_Alloc_hider" = type { ptr }
%union.anon.173 = type { i64, [8 x i8] }
%"class.llvm::SmallVectorBase.154" = type { ptr, i64, i64 }
%"struct.llvm::DenormalMode" = type { i8, i8 }
%"class.llvm::TargetMachine" = type { ptr, ptr, %"class.llvm::DataLayout", %"class.llvm::Triple", %"class.std::__cxx11::basic_string", %"class.std::__cxx11::basic_string", i32, i32, i64, i32, %"class.std::unique_ptr.179", %"class.std::unique_ptr.187", %"class.std::unique_ptr.195", %"class.std::unique_ptr.203", i8, [7 x i8], %"class.std::optional.211", %"class.llvm::TargetOptions" }
%"class.llvm::DataLayout" = type { i8, i32, i32, i32, %"struct.llvm::MaybeAlign", %"struct.llvm::MaybeAlign", i32, i32, %"class.llvm::SmallVector.150", %"class.llvm::SmallVector.156", %"class.llvm::SmallVector.161", %"class.llvm::SmallVector.163", %"class.llvm::SmallVector.165", %"class.std::__cxx11::basic_string", %"struct.llvm::Align", %"struct.llvm::Align", ptr, %"class.llvm::SmallVector.174" }
%"class.llvm::SmallVector.150" = type { %"class.llvm::SmallVectorImpl.151", %"struct.llvm::SmallVectorStorage.155" }
%"class.llvm::SmallVectorImpl.151" = type { %"class.llvm::SmallVectorTemplateBase.152" }
%"class.llvm::SmallVectorTemplateBase.152" = type { %"class.llvm::SmallVectorTemplateCommon.153" }
%"class.llvm::SmallVectorTemplateCommon.153" = type { %"class.llvm::SmallVectorBase.154" }
%"struct.llvm::SmallVectorStorage.155" = type { [8 x i8] }
%"class.llvm::SmallVector.156" = type { %"class.llvm::SmallVectorImpl.157", %"struct.llvm::SmallVectorStorage.160" }
%"class.llvm::SmallVectorImpl.157" = type { %"class.llvm::SmallVectorTemplateBase.158" }
%"class.llvm::SmallVectorTemplateBase.158" = type { %"class.llvm::SmallVectorTemplateCommon.159" }
%"class.llvm::SmallVectorTemplateCommon.159" = type { %"class.llvm::SmallVectorBase" }
%"struct.llvm::SmallVectorStorage.160" = type { [48 x i8] }
%"class.llvm::SmallVector.161" = type { %"class.llvm::SmallVectorImpl.157", %"struct.llvm::SmallVectorStorage.162" }
%"struct.llvm::SmallVectorStorage.162" = type { [32 x i8] }
%"class.llvm::SmallVector.163" = type { %"class.llvm::SmallVectorImpl.157", %"struct.llvm::SmallVectorStorage.164" }
%"struct.llvm::SmallVectorStorage.164" = type { [80 x i8] }
%"class.llvm::SmallVector.165" = type { %"class.llvm::SmallVectorImpl.166", %"struct.llvm::SmallVectorStorage.169" }
%"class.llvm::SmallVectorImpl.166" = type { %"class.llvm::SmallVectorTemplateBase.167" }
%"class.llvm::SmallVectorTemplateBase.167" = type { %"class.llvm::SmallVectorTemplateCommon.168" }
%"class.llvm::SmallVectorTemplateCommon.168" = type { %"class.llvm::SmallVectorBase" }
%"struct.llvm::SmallVectorStorage.169" = type { [128 x i8] }
%"class.llvm::SmallVector.174" = type { %"class.llvm::SmallVectorImpl.175", %"struct.llvm::SmallVectorStorage.178" }
%"class.llvm::SmallVectorImpl.175" = type { %"class.llvm::SmallVectorTemplateBase.176" }
%"class.llvm::SmallVectorTemplateBase.176" = type { %"class.llvm::SmallVectorTemplateCommon.177" }
%"class.llvm::SmallVectorTemplateCommon.177" = type { %"class.llvm::SmallVectorBase" }
%"struct.llvm::SmallVectorStorage.178" = type { [32 x i8] }
%"class.llvm::Triple" = type { %"class.std::__cxx11::basic_string", i32, i32, i32, i32, i32, i32 }
%"class.std::unique_ptr.179" = type { %"struct.std::__uniq_ptr_data.180" }
%"struct.std::__uniq_ptr_data.180" = type { %"class.std::__uniq_ptr_impl.181" }
%"class.std::__uniq_ptr_impl.181" = type { %"class.std::tuple.182" }
%"class.std::tuple.182" = type { %"struct.std::_Tuple_impl.183" }
%"struct.std::_Tuple_impl.183" = type { %"struct.std::_Head_base.186" }
%"struct.std::_Head_base.186" = type { ptr }
%"class.std::unique_ptr.187" = type { %"struct.std::__uniq_ptr_data.188" }
%"struct.std::__uniq_ptr_data.188" = type { %"class.std::__uniq_ptr_impl.189" }
%"class.std::__uniq_ptr_impl.189" = type { %"class.std::tuple.190" }
%"class.std::tuple.190" = type { %"struct.std::_Tuple_impl.191" }
%"struct.std::_Tuple_impl.191" = type { %"struct.std::_Head_base.194" }
%"struct.std::_Head_base.194" = type { ptr }
%"class.std::unique_ptr.195" = type { %"struct.std::__uniq_ptr_data.196" }
%"struct.std::__uniq_ptr_data.196" = type { %"class.std::__uniq_ptr_impl.197" }
%"class.std::__uniq_ptr_impl.197" = type { %"class.std::tuple.198" }
%"class.std::tuple.198" = type { %"struct.std::_Tuple_impl.199" }
%"struct.std::_Tuple_impl.199" = type { %"struct.std::_Head_base.202" }
%"struct.std::_Head_base.202" = type { ptr }
%"class.std::unique_ptr.203" = type { %"struct.std::__uniq_ptr_data.204" }
%"struct.std::__uniq_ptr_data.204" = type { %"class.std::__uniq_ptr_impl.205" }
%"class.std::__uniq_ptr_impl.205" = type { %"class.std::tuple.206" }
%"class.std::tuple.206" = type { %"struct.std::_Tuple_impl.207" }
%"struct.std::_Tuple_impl.207" = type { %"struct.std::_Head_base.210" }
%"struct.std::_Head_base.210" = type { ptr }
%"class.std::optional.211" = type { %"struct.std::_Optional_base.212" }
%"struct.std::_Optional_base.212" = type { %"struct.std::_Optional_payload.214" }
%"struct.std::_Optional_payload.214" = type { %"struct.std::_Optional_payload.base.218", [7 x i8] }
%"struct.std::_Optional_payload.base.218" = type { %"struct.std::_Optional_payload_base.base.217" }
%"struct.std::_Optional_payload_base.base.217" = type <{ %"union.std::_Optional_payload_base<llvm::PGOOptions>::_Storage", i8 }>
%"union.std::_Optional_payload_base<llvm::PGOOptions>::_Storage" = type { %"struct.llvm::PGOOptions" }
%"struct.llvm::PGOOptions" = type { %"class.std::__cxx11::basic_string", %"class.std::__cxx11::basic_string", %"class.std::__cxx11::basic_string", %"class.std::__cxx11::basic_string", i32, i32, i32, i8, i8, i8, %"class.llvm::IntrusiveRefCntPtr" }
%"class.llvm::IntrusiveRefCntPtr" = type { ptr }
%"class.llvm::TargetOptions" = type { %"struct.std::pair", i16, i32, i32, i32, i32, %"class.std::shared_ptr", i16, %"class.std::__cxx11::basic_string", i32, i32, i32, i32, i32, i32, %"struct.llvm::DenormalMode", %"struct.llvm::DenormalMode", i32, %"class.llvm::MCTargetOptions", %"class.std::__cxx11::basic_string" }
%"struct.std::pair" = type { i32, i32 }
%"class.std::shared_ptr" = type { %"class.std::__shared_ptr" }
%"class.std::__shared_ptr" = type { ptr, %"class.std::__shared_count" }
%"class.std::__shared_count" = type { ptr }
%"class.llvm::MCTargetOptions" = type <{ i16, i8, i8, i8, i8, [2 x i8], i32, i32, i32, i32, %"class.std::__cxx11::basic_string", %"class.std::__cxx11::basic_string", %"class.std::__cxx11::basic_string", %"class.std::__cxx11::basic_string", ptr, %"class.llvm::ArrayRef", %"class.std::vector.221", i8, [7 x i8] }>
%"class.llvm::ArrayRef" = type { ptr, i64 }
%"class.std::vector.221" = type { %"struct.std::_Vector_base.222" }
%"struct.std::_Vector_base.222" = type { %"struct.std::_Vector_base<std::__cxx11::basic_string<char>, std::allocator<std::__cxx11::basic_string<char>>>::_Vector_impl" }
%"struct.std::_Vector_base<std::__cxx11::basic_string<char>, std::allocator<std::__cxx11::basic_string<char>>>::_Vector_impl" = type { %"struct.std::_Vector_base<std::__cxx11::basic_string<char>, std::allocator<std::__cxx11::basic_string<char>>>::_Vector_impl_data" }
%"struct.std::_Vector_base<std::__cxx11::basic_string<char>, std::allocator<std::__cxx11::basic_string<char>>>::_Vector_impl_data" = type { ptr, ptr, ptr }

; Function Attrs: mustprogress nounwind uwtable
define linkonce_odr hidden noundef nonnull align 8 dereferenceable(56) ptr @_ZNK4llvm13TargetMachine15getTargetTripleEv(ptr noundef nonnull align 8 dereferenceable(1232) %0) #1 comdat align 2 {
  %2 = alloca ptr, align 8
  store ptr %0, ptr %2, align 8
  %3 = load ptr, ptr %2, align 8
  %4 = getelementptr inbounds nuw %"class.llvm::TargetMachine", ptr %3, i32 0, i32 3
  ret ptr %4
}

; Function Attrs: mustprogress nounwind uwtable
define linkonce_odr hidden noundef i32 @_ZNK4llvm13TargetMachine11getOptLevelEv(ptr noundef nonnull align 8 dereferenceable(1232) %0) #1 comdat align 2 {
  %2 = alloca ptr, align 8
  store ptr %0, ptr %2, align 8
  %3 = load ptr, ptr %2, align 8
  %4 = getelementptr inbounds nuw %"class.llvm::TargetMachine", ptr %3, i32 0, i32 9
  %5 = load i32, ptr %4, align 8
  ret i32 %5
}

; Function Attrs: mustprogress nounwind uwtable
define linkonce_odr hidden noundef nonnull align 8 dereferenceable(1232) ptr @_ZNK4llvm15MachineFunction9getTargetEv(ptr noundef nonnull align 8 dereferenceable(1041) %0) #1 comdat align 2 {
  %2 = alloca ptr, align 8
  store ptr %0, ptr %2, align 8
  %3 = load ptr, ptr %2, align 8
  %4 = getelementptr inbounds nuw %"class.llvm::MachineFunction", ptr %3, i32 0, i32 1
  %5 = load ptr, ptr %4, align 8
  ret ptr %5
}

; Function Attrs: mustprogress nounwind uwtable
define dso_local noundef zeroext i1 @_ZNK4llvm15MachineFunction22shouldUseDebugInstrRefEv(ptr noundef nonnull align 8 dereferenceable(1041) %0) #1 align 2 {
  %2 = alloca i1, align 1
  %3 = alloca ptr, align 8
  store ptr %0, ptr %3, align 8
  %4 = load ptr, ptr %3, align 8
  %5 = call noundef nonnull align 8 dereferenceable(1232) ptr @_ZNK4llvm15MachineFunction9getTargetEv(ptr noundef nonnull align 8 dereferenceable(1041) %4)
  %6 = call noundef i32 @_ZNK4llvm13TargetMachine11getOptLevelEv(ptr noundef nonnull align 8 dereferenceable(1232) %5)
  %7 = icmp eq i32 %6, 0
  br i1 %7, label %8, label %9

8:                                                ; preds = %1
  store i1 false, ptr %2, align 1
  br label %20

9:                                                ; preds = %1
  %10 = getelementptr inbounds nuw %"class.llvm::MachineFunction", ptr %4, i32 0, i32 0
  %11 = load ptr, ptr %10, align 8
  %12 = call noundef zeroext i1 @_ZNK4llvm8Function14hasFnAttributeENS_9Attribute8AttrKindE(ptr noundef nonnull align 8 dereferenceable(136) %11, i32 noundef 46)
  br i1 %12, label %13, label %14

13:                                               ; preds = %9
  store i1 false, ptr %2, align 1
  br label %20

14:                                               ; preds = %9
  %15 = call noundef nonnull align 8 dereferenceable(1232) ptr @_ZNK4llvm15MachineFunction9getTargetEv(ptr noundef nonnull align 8 dereferenceable(1041) %4)
  %16 = call noundef nonnull align 8 dereferenceable(56) ptr @_ZNK4llvm13TargetMachine15getTargetTripleEv(ptr noundef nonnull align 8 dereferenceable(1232) %15)
  %17 = call noundef zeroext i1 @_ZN4llvm31debuginfoShouldUseDebugInstrRefERKNS_6TripleE(ptr noundef nonnull align 8 dereferenceable(56) %16)
  br i1 %17, label %18, label %19

18:                                               ; preds = %14
  store i1 true, ptr %2, align 1
  br label %20

19:                                               ; preds = %14
  store i1 false, ptr %2, align 1
  br label %20

20:                                               ; preds = %19, %18, %13, %8
  %21 = load i1, ptr %2, align 1
  ret i1 %21
}