; Function Attrs: mustprogress nounwind uwtable
define dso_local noundef zeroext i1 @_ZNK4llvm15MachineFunction22shouldUseDebugInstrRefEv(ptr noundef nonnull readonly align 8 captures(none) dereferenceable(1041) %0) local_unnamed_addr #0 align 2 {
  %2 = getelementptr inbounds nuw i8, ptr %0, i64 8
  %3 = load ptr, ptr %2, align 8
  %4 = getelementptr inbounds nuw i8, ptr %3, i64 664
  %5 = load i32, ptr %4, align 8
  %6 = icmp eq i32 %5, 0
  br i1 %6, label %14, label %7

7:                                                ; preds = %1
  %8 = load ptr, ptr %0, align 8
  %9 = tail call noundef zeroext i1 @_ZNK4llvm8Function14hasFnAttributeENS_9Attribute8AttrKindE(ptr noundef nonnull align 8 dereferenceable(136) %8, i32 noundef 46) #25
  br i1 %9, label %14, label %10

10:                                               ; preds = %7
  %11 = load ptr, ptr %2, align 8
  %12 = getelementptr inbounds nuw i8, ptr %11, i64 528
  %13 = tail call noundef zeroext i1 @_ZN4llvm31debuginfoShouldUseDebugInstrRefERKNS_6TripleE(ptr noundef nonnull align 8 dereferenceable(56) %12) #25
  br label %14

14:                                               ; preds = %10, %7, %1
  %.0 = phi i1 [ false, %1 ], [ false, %7 ], [ %13, %10 ]
  ret i1 %.0
}